target datalayout = "e-m:e-p270:32:32-p271:32:32-p272:64:64-i64:64-i128:128-f80:128-n8:16:32:64-S128"
target triple = "x86_64-pc-linux-gnu"

%struct.AVCodecParser = type { [7 x i32], i32, ptr, ptr, ptr, ptr }
%struct.AVCodecParserContext = type { ptr, ptr, i64, i64, i64, i32, i32, i64, i64, i64, i64, i32, i32, [4 x i64], [4 x i64], [4 x i64], i32, i64, [4 x i64], i32, i32, i32, i32, [4 x i64], i64, i64, i32, i32, i32, i32, i32, i32, i32, i32, i32 }

; Function Attrs: nounwind uwtable
define ptr @av_parser_init(i32 noundef %0) #0 {
  %2 = alloca ptr, align 8
  %3 = alloca i32, align 4
  %4 = alloca ptr, align 8
  %5 = alloca ptr, align 8
  %6 = alloca ptr, align 8
  %7 = alloca i32, align 4
  %8 = alloca i32, align 4
  store i32 %0, ptr %3, align 4, !tbaa !4
  call void @llvm.lifetime.start.p0(i64 8, ptr %4) #6
  store ptr null, ptr %4, align 8, !tbaa !8
  call void @llvm.lifetime.start.p0(i64 8, ptr %5) #6
  call void @llvm.lifetime.start.p0(i64 8, ptr %6) #6
  store ptr null, ptr %6, align 8, !tbaa !11
  call void @llvm.lifetime.start.p0(i64 4, ptr %7) #6
  %9 = load i32, ptr %3, align 4, !tbaa !4
  %10 = icmp eq i32 %9, 0
  br i1 %10, label %11, label %12

11:                                               ; preds = %1
  store ptr null, ptr %2, align 8
  store i32 1, ptr %8, align 4
  br label %128

12:                                               ; preds = %1
  br label %13

13:                                               ; preds = %66, %12
  %14 = call ptr @av_parser_iterate(ptr noundef %6)
  store ptr %14, ptr %5, align 8, !tbaa !12
  %15 = icmp ne ptr %14, null
  br i1 %15, label %16, label %67

16:                                               ; preds = %13
  %17 = load ptr, ptr %5, align 8, !tbaa !12
  %18 = getelementptr inbounds nuw %struct.AVCodecParser, ptr %17, i32 0, i32 0
  %19 = getelementptr inbounds [7 x i32], ptr %18, i64 0, i64 0
  %20 = load i32, ptr %19, align 8, !tbaa !4
  %21 = load i32, ptr %3, align 4, !tbaa !4
  %22 = icmp eq i32 %20, %21
  br i1 %22, label %65, label %23

23:                                               ; preds = %16
  %24 = load ptr, ptr %5, align 8, !tbaa !12
  %25 = getelementptr inbounds nuw %struct.AVCodecParser, ptr %24, i32 0, i32 0
  %26 = getelementptr inbounds [7 x i32], ptr %25, i64 0, i64 1
  %27 = load i32, ptr %26, align 4, !tbaa !4
  %28 = load i32, ptr %3, align 4, !tbaa !4
  %29 = icmp eq i32 %27, %28
  br i1 %29, label %65, label %30

30:                                               ; preds = %23
  %31 = load ptr, ptr %5, align 8, !tbaa !12
  %32 = getelementptr inbounds nuw %struct.AVCodecParser, ptr %31, i32 0, i32 0
  %33 = getelementptr inbounds [7 x i32], ptr %32, i64 0, i64 2
  %34 = load i32, ptr %33, align 8, !tbaa !4
  %35 = load i32, ptr %3, align 4, !tbaa !4
  %36 = icmp eq i32 %34, %35
  br i1 %36, label %65, label %37

37:                                               ; preds = %30
  %38 = load ptr, ptr %5, align 8, !tbaa !12
  %39 = getelementptr inbounds nuw %struct.AVCodecParser, ptr %38, i32 0, i32 0
  %40 = getelementptr inbounds [7 x i32], ptr %39, i64 0, i64 3
  %41 = load i32, ptr %40, align 4, !tbaa !4
  %42 = load i32, ptr %3, align 4, !tbaa !4
  %43 = icmp eq i32 %41, %42
  br i1 %43, label %65, label %44

44:                                               ; preds = %37
  %45 = load ptr, ptr %5, align 8, !tbaa !12
  %46 = getelementptr inbounds nuw %struct.AVCodecParser, ptr %45, i32 0, i32 0
  %47 = getelementptr inbounds [7 x i32], ptr %46, i64 0, i64 4
  %48 = load i32, ptr %47, align 8, !tbaa !4
  %49 = load i32, ptr %3, align 4, !tbaa !4
  %50 = icmp eq i32 %48, %49
  br i1 %50, label %65, label %51

51:                                               ; preds = %44
  %52 = load ptr, ptr %5, align 8, !tbaa !12
  %53 = getelementptr inbounds nuw %struct.AVCodecParser, ptr %52, i32 0, i32 0
  %54 = getelementptr inbounds [7 x i32], ptr %53, i64 0, i64 5
  %55 = load i32, ptr %54, align 4, !tbaa !4
  %56 = load i32, ptr %3, align 4, !tbaa !4
  %57 = icmp eq i32 %55, %56
  br i1 %57, label %65, label %58

58:                                               ; preds = %51
  %59 = load ptr, ptr %5, align 8, !tbaa !12
  %60 = getelementptr inbounds nuw %struct.AVCodecParser, ptr %59, i32 0, i32 0
  %61 = getelementptr inbounds [7 x i32], ptr %60, i64 0, i64 6
  %62 = load i32, ptr %61, align 8, !tbaa !4
  %63 = load i32, ptr %3, align 4, !tbaa !4
  %64 = icmp eq i32 %62, %63
  br i1 %64, label %65, label %66

65:                                               ; preds = %58, %51, %44, %37, %30, %23, %16
  br label %68

66:                                               ; preds = %58
  br label %13, !llvm.loop !14

67:                                               ; preds = %13
  store ptr null, ptr %2, align 8
  store i32 1, ptr %8, align 4
  br label %128

68:                                               ; preds = %65
  %69 = call noalias ptr @av_mallocz(i64 noundef 336)
  store ptr %69, ptr %4, align 8, !tbaa !8
  %70 = load ptr, ptr %4, align 8, !tbaa !8
  %71 = icmp ne ptr %70, null
  br i1 %71, label %73, label %72

72:                                               ; preds = %68
  br label %120

73:                                               ; preds = %68
  %74 = load ptr, ptr %5, align 8, !tbaa !12
  %75 = load ptr, ptr %4, align 8, !tbaa !8
  %76 = getelementptr inbounds nuw %struct.AVCodecParserContext, ptr %75, i32 0, i32 1
  store ptr %74, ptr %76, align 8, !tbaa !16
  %77 = load ptr, ptr %5, align 8, !tbaa !12
  %78 = getelementptr inbounds nuw %struct.AVCodecParser, ptr %77, i32 0, i32 1
  %79 = load i32, ptr %78, align 4, !tbaa !19
  %80 = sext i32 %79 to i64
  %81 = call noalias ptr @av_mallocz(i64 noundef %80)
  %82 = load ptr, ptr %4, align 8, !tbaa !8
  %83 = getelementptr inbounds nuw %struct.AVCodecParserContext, ptr %82, i32 0, i32 0
  store ptr %81, ptr %83, align 8, !tbaa !21
  %84 = load ptr, ptr %4, align 8, !tbaa !8
  %85 = getelementptr inbounds nuw %struct.AVCodecParserContext, ptr %84, i32 0, i32 0
  %86 = load ptr, ptr %85, align 8, !tbaa !21
  %87 = icmp ne ptr %86, null
  br i1 %87, label %89, label %88

88:                                               ; preds = %73
  br label %120

89:                                               ; preds = %73
  %90 = load ptr, ptr %4, align 8, !tbaa !8
  %91 = getelementptr inbounds nuw %struct.AVCodecParserContext, ptr %90, i32 0, i32 11
  store i32 1, ptr %91, align 8, !tbaa !22
  %92 = load ptr, ptr %4, align 8, !tbaa !8
  %93 = getelementptr inbounds nuw %struct.AVCodecParserContext, ptr %92, i32 0, i32 5
  store i32 1, ptr %93, align 8, !tbaa !23
  %94 = load ptr, ptr %5, align 8, !tbaa !12
  %95 = getelementptr inbounds nuw %struct.AVCodecParser, ptr %94, i32 0, i32 2
  %96 = load ptr, ptr %95, align 8, !tbaa !24
  %97 = icmp ne ptr %96, null
  br i1 %97, label %98, label %108

98:                                               ; preds = %89
  %99 = load ptr, ptr %5, align 8, !tbaa !12
  %100 = getelementptr inbounds nuw %struct.AVCodecParser, ptr %99, i32 0, i32 2
  %101 = load ptr, ptr %100, align 8, !tbaa !24
  %102 = load ptr, ptr %4, align 8, !tbaa !8
  %103 = call i32 %101(ptr noundef %102)
  store i32 %103, ptr %7, align 4, !tbaa !4
  %104 = load i32, ptr %7, align 4, !tbaa !4
  %105 = icmp ne i32 %104, 0
  br i1 %105, label %106, label %107

106:                                              ; preds = %98
  br label %120

107:                                              ; preds = %98
  br label %108

108:                                              ; preds = %107, %89
  %109 = load ptr, ptr %4, align 8, !tbaa !8
  %110 = getelementptr inbounds nuw %struct.AVCodecParserContext, ptr %109, i32 0, i32 19
  store i32 -1, ptr %110, align 8, !tbaa !25
  %111 = load ptr, ptr %4, align 8, !tbaa !8
  %112 = getelementptr inbounds nuw %struct.AVCodecParserContext, ptr %111, i32 0, i32 20
  store i32 -2147483648, ptr %112, align 4, !tbaa !26
  %113 = load ptr, ptr %4, align 8, !tbaa !8
  %114 = getelementptr inbounds nuw %struct.AVCodecParserContext, ptr %113, i32 0, i32 21
  store i32 -2147483648, ptr %114, align 8, !tbaa !27
  %115 = load ptr, ptr %4, align 8, !tbaa !8
  %116 = getelementptr inbounds nuw %struct.AVCodecParserContext, ptr %115, i32 0, i32 22
  store i32 -2147483648, ptr %116, align 4, !tbaa !28
  %117 = load ptr, ptr %4, align 8, !tbaa !8
  %118 = getelementptr inbounds nuw %struct.AVCodecParserContext, ptr %117, i32 0, i32 34
  store i32 -1, ptr %118, align 8, !tbaa !29
  %119 = load ptr, ptr %4, align 8, !tbaa !8
  store ptr %119, ptr %2, align 8
  store i32 1, ptr %8, align 4
  br label %128

120:                                              ; preds = %106, %88, %72
  %121 = load ptr, ptr %4, align 8, !tbaa !8
  %122 = icmp ne ptr %121, null
  br i1 %122, label %123, label %126

123:                                              ; preds = %120
  %124 = load ptr, ptr %4, align 8, !tbaa !8
  %125 = getelementptr inbounds nuw %struct.AVCodecParserContext, ptr %124, i32 0, i32 0
  call void @av_freep(ptr noundef %125)
  br label %126

126:                                              ; preds = %123, %120
  %127 = load ptr, ptr %4, align 8, !tbaa !8
  call void @av_free(ptr noundef %127)
  store ptr null, ptr %2, align 8
  store i32 1, ptr %8, align 4
  br label %128

128:                                              ; preds = %126, %108, %67, %11
  call void @llvm.lifetime.end.p0(i64 4, ptr %7) #6
  call void @llvm.lifetime.end.p0(i64 8, ptr %6) #6
  call void @llvm.lifetime.end.p0(i64 8, ptr %5) #6
  call void @llvm.lifetime.end.p0(i64 8, ptr %4) #6
  %129 = load ptr, ptr %2, align 8
  ret ptr %129
}