; Function Attrs: nounwind uwtable
define ptr @av_parser_init(i32 noundef %0) local_unnamed_addr #0 {
  %2 = alloca ptr, align 8
  call void @llvm.lifetime.start.p0(i64 8, ptr nonnull %2) #8
  store ptr null, ptr %2, align 8, !tbaa !4
  %3 = icmp eq i32 %0, 0
  br i1 %3, label %.loopexit, label %.preheader

.preheader:                                       ; preds = %1, %28
  %4 = call ptr @av_parser_iterate(ptr noundef nonnull %2) #8
  %.not = icmp eq ptr %4, null
  br i1 %.not, label %.loopexit, label %5

5:                                                ; preds = %.preheader
  %6 = load i32, ptr %4, align 8, !tbaa !8
  %7 = icmp eq i32 %6, %0
  br i1 %7, label %32, label %8

8:                                                ; preds = %5
  %9 = getelementptr inbounds nuw i8, ptr %4, i64 4
  %10 = load i32, ptr %9, align 4, !tbaa !8
  %11 = icmp eq i32 %10, %0
  br i1 %11, label %32, label %12

12:                                               ; preds = %8
  %13 = getelementptr inbounds nuw i8, ptr %4, i64 8
  %14 = load i32, ptr %13, align 8, !tbaa !8
  %15 = icmp eq i32 %14, %0
  br i1 %15, label %32, label %16

16:                                               ; preds = %12
  %17 = getelementptr inbounds nuw i8, ptr %4, i64 12
  %18 = load i32, ptr %17, align 4, !tbaa !8
  %19 = icmp eq i32 %18, %0
  br i1 %19, label %32, label %20

20:                                               ; preds = %16
  %21 = getelementptr inbounds nuw i8, ptr %4, i64 16
  %22 = load i32, ptr %21, align 8, !tbaa !8
  %23 = icmp eq i32 %22, %0
  br i1 %23, label %32, label %24

24:                                               ; preds = %20
  %25 = getelementptr inbounds nuw i8, ptr %4, i64 20
  %26 = load i32, ptr %25, align 4, !tbaa !8
  %27 = icmp eq i32 %26, %0
  br i1 %27, label %32, label %28

28:                                               ; preds = %24
  %29 = getelementptr inbounds nuw i8, ptr %4, i64 24
  %30 = load i32, ptr %29, align 8, !tbaa !8
  %31 = icmp eq i32 %30, %0
  br i1 %31, label %32, label %.preheader, !llvm.loop !10

32:                                               ; preds = %5, %8, %12, %16, %20, %24, %28
  %33 = call noalias ptr @av_mallocz(i64 noundef 336) #8
  %.not40 = icmp eq ptr %33, null
  br i1 %.not40, label %.critedge, label %34

34:                                               ; preds = %32
  %35 = getelementptr inbounds nuw i8, ptr %33, i64 8
  store ptr %4, ptr %35, align 8, !tbaa !12
  %36 = getelementptr inbounds nuw i8, ptr %4, i64 28
  %37 = load i32, ptr %36, align 4, !tbaa !16
  %38 = sext i32 %37 to i64
  %39 = call noalias ptr @av_mallocz(i64 noundef %38) #8
  store ptr %39, ptr %33, align 8, !tbaa !18
  %.not41 = icmp eq ptr %39, null
  br i1 %.not41, label %53, label %40

40:                                               ; preds = %34
  %41 = getelementptr inbounds nuw i8, ptr %33, i64 80
  store i32 1, ptr %41, align 8, !tbaa !19
  %42 = getelementptr inbounds nuw i8, ptr %33, i64 40
  store i32 1, ptr %42, align 8, !tbaa !20
  %43 = getelementptr inbounds nuw i8, ptr %4, i64 32
  %44 = load ptr, ptr %43, align 8, !tbaa !21
  %.not42 = icmp eq ptr %44, null
  br i1 %.not42, label %47, label %45

45:                                               ; preds = %40
  %46 = call i32 %44(ptr noundef nonnull %33) #8
  %.not43 = icmp eq i32 %46, 0
  br i1 %.not43, label %47, label %53

47:                                               ; preds = %45, %40
  %48 = getelementptr inbounds nuw i8, ptr %33, i64 232
  store i32 -1, ptr %48, align 8, !tbaa !22
  %49 = getelementptr inbounds nuw i8, ptr %33, i64 236
  store i32 -2147483648, ptr %49, align 4, !tbaa !23
  %50 = getelementptr inbounds nuw i8, ptr %33, i64 240
  store i32 -2147483648, ptr %50, align 8, !tbaa !24
  %51 = getelementptr inbounds nuw i8, ptr %33, i64 244
  store i32 -2147483648, ptr %51, align 4, !tbaa !25
  %52 = getelementptr inbounds nuw i8, ptr %33, i64 328
  store i32 -1, ptr %52, align 8, !tbaa !26
  br label %.loopexit

53:                                               ; preds = %34, %45
  call void @av_freep(ptr noundef nonnull %33) #8
  br label %.critedge

.critedge:                                        ; preds = %32, %53
  call void @av_free(ptr noundef %33) #8
  br label %.loopexit

.loopexit:                                        ; preds = %.preheader, %1, %.critedge, %47
  %.0 = phi ptr [ null, %.critedge ], [ %33, %47 ], [ null, %1 ], [ null, %.preheader ]
  call void @llvm.lifetime.end.p0(i64 8, ptr nonnull %2) #8
  ret ptr %.0
}